target datalayout = "e-m:e-p270:32:32-p271:32:32-p272:64:64-i64:64-i128:128-f80:128-n8:16:32:64-S128"
target triple = "x86_64-unknown-linux-gnu"

%"struct.node::AssertionInfo" = type { ptr, ptr, ptr }
%union.pthread_mutex_t = type { %struct.__pthread_mutex_s }
%struct.__pthread_mutex_s = type { i32, i32, i32, i32, i32, i16, i16, %struct.__pthread_internal_list }
%struct.__pthread_internal_list = type { ptr, ptr }
%class.anon = type { i8 }
%"class.node::Watchdog" = type { ptr, i64, %struct.uv_loop_s, %struct.uv_async_s, %struct.uv_timer_s, ptr }
%struct.uv_loop_s = type { ptr, i32, %struct.uv__queue, %union.anon, ptr, i32, i64, i32, %struct.uv__queue, %struct.uv__queue, ptr, i32, i32, %struct.uv__queue, %union.pthread_mutex_t, %struct.uv_async_s, %union.pthread_rwlock_t, ptr, %struct.uv__queue, %struct.uv__queue, %struct.uv__queue, %struct.uv__queue, %struct.uv__queue, ptr, %struct.uv__io_s, i32, %struct.anon, i64, i64, [2 x i32], %struct.uv__io_s, %struct.uv_signal_s, i32, %struct.uv__io_s, ptr, i32 }
%union.anon = type { ptr }
%union.pthread_rwlock_t = type { %struct.__pthread_rwlock_arch_t }
%struct.__pthread_rwlock_arch_t = type { i32, i32, i32, i32, i32, i32, i32, i32, i8, [7 x i8], i64, i32 }
%struct.uv__queue = type { ptr, ptr }
%struct.anon = type { ptr, i32 }
%struct.uv_signal_s = type { ptr, ptr, i32, ptr, %struct.uv__queue, %union.anon.1, ptr, i32, ptr, i32, %struct.anon.2, i32, i32 }
%union.anon.1 = type { [4 x ptr] }
%struct.anon.2 = type { ptr, ptr, ptr, i32 }
%struct.uv__io_s = type { ptr, %struct.uv__queue, %struct.uv__queue, i32, i32, i32 }
%struct.uv_async_s = type { ptr, ptr, i32, ptr, %struct.uv__queue, %union.anon.0, ptr, i32, ptr, %struct.uv__queue, i32 }
%union.anon.0 = type { [4 x ptr] }
%struct.uv_timer_s = type { ptr, ptr, i32, ptr, %struct.uv__queue, %union.anon.3, ptr, i32, ptr, [3 x ptr], i64, i64, i64 }
%union.anon.3 = type { [4 x ptr] }

@_ZZN4node8WatchdogC1EPN2v87IsolateEmPbE4args = internal constant %"struct.node::AssertionInfo" { ptr @.str, ptr @.str.1, ptr @.str.2 }, align 8
@_ZZN4node8WatchdogC1EPN2v87IsolateEmPbE4args_0 = internal constant %"struct.node::AssertionInfo" { ptr @.str.3, ptr @.str.4, ptr @.str.2 }, align 8
@_ZZN4node8WatchdogC1EPN2v87IsolateEmPbE4args_1 = internal constant %"struct.node::AssertionInfo" { ptr @.str.5, ptr @.str.4, ptr @.str.2 }, align 8
@_ZZN4node8WatchdogC1EPN2v87IsolateEmPbE4args_2 = internal constant %"struct.node::AssertionInfo" { ptr @.str.6, ptr @.str.4, ptr @.str.2 }, align 8
@_ZZN4node8WatchdogC1EPN2v87IsolateEmPbE4args_3 = internal constant %"struct.node::AssertionInfo" { ptr @.str.7, ptr @.str.4, ptr @.str.2 }, align 8

; Function Attrs: mustprogress nounwind uwtable
define internal noundef ptr @"_ZZN4node8WatchdogC1EPN2v87IsolateEmPbENK3$_0cvPFvP10uv_async_sEEv"(ptr noundef nonnull align 1 dereferenceable(1) %this) #4 align 2 {
entry:
  %this.addr = alloca ptr, align 8
  store ptr %this, ptr %this.addr, align 8
  ret ptr @"_ZZN4node8WatchdogC1EPN2v87IsolateEmPbEN3$_08__invokeEP10uv_async_s"
}

; Function Attrs: mustprogress nounwind uwtable
define dso_local void @_ZN4node8WatchdogC2EPN2v87IsolateEmPb(ptr noundef nonnull align 8 dereferenceable(1152) %this, ptr noundef %isolate, i64 noundef %ms, ptr noundef %timed_out) unnamed_addr #4 align 2 {
entry:
  %this.addr = alloca ptr, align 8
  %isolate.addr = alloca ptr, align 8
  %ms.addr = alloca i64, align 8
  %timed_out.addr = alloca ptr, align 8
  %rc = alloca i32, align 4
  %ref.tmp = alloca %class.anon, align 1
  store ptr %this, ptr %this.addr, align 8
  store ptr %isolate, ptr %isolate.addr, align 8
  store i64 %ms, ptr %ms.addr, align 8
  store ptr %timed_out, ptr %timed_out.addr, align 8
  %this1 = load ptr, ptr %this.addr, align 8
  %isolate_ = getelementptr inbounds %"class.node::Watchdog", ptr %this1, i32 0, i32 0
  %0 = load ptr, ptr %isolate.addr, align 8
  store ptr %0, ptr %isolate_, align 8
  %timed_out_ = getelementptr inbounds %"class.node::Watchdog", ptr %this1, i32 0, i32 5
  %1 = load ptr, ptr %timed_out.addr, align 8
  store ptr %1, ptr %timed_out_, align 8
  %loop_2 = getelementptr inbounds %"class.node::Watchdog", ptr %this1, i32 0, i32 2
  %call = call i32 @uv_loop_init(ptr noundef %loop_2)
  store i32 %call, ptr %rc, align 4
  %2 = load i32, ptr %rc, align 4
  %cmp = icmp ne i32 %2, 0
  br i1 %cmp, label %if.then, label %if.end

if.then:                                          ; preds = %entry
  br label %do.body

do.body:                                          ; preds = %if.then
  call void @_ZN4node6AssertERKNS_13AssertionInfoE(ptr noundef nonnull align 8 dereferenceable(24) @_ZZN4node8WatchdogC1EPN2v87IsolateEmPbE4args)
  call void @abort() #14
  unreachable

do.end:                                           ; No predecessors!
  br label %if.end

if.end:                                           ; preds = %do.end, %entry
  %loop_3 = getelementptr inbounds %"class.node::Watchdog", ptr %this1, i32 0, i32 2
  %async_4 = getelementptr inbounds %"class.node::Watchdog", ptr %this1, i32 0, i32 3
  %call5 = call noundef ptr @"_ZZN4node8WatchdogC1EPN2v87IsolateEmPbENK3$_0cvPFvP10uv_async_sEEv"(ptr noundef nonnull align 1 dereferenceable(1) %ref.tmp) #3
  %call6 = call i32 @uv_async_init(ptr noundef %loop_3, ptr noundef %async_4, ptr noundef %call5)
  store i32 %call6, ptr %rc, align 4
  br label %do.body7

do.body7:                                         ; preds = %if.end
  %3 = load i32, ptr %rc, align 4
  %cmp8 = icmp eq i32 0, %3
  %lnot = xor i1 %cmp8, true
  %lnot9 = xor i1 %lnot, true
  %lnot10 = xor i1 %lnot9, true
  br i1 %lnot10, label %if.then11, label %if.end14

if.then11:                                        ; preds = %do.body7
  br label %do.body12

do.body12:                                        ; preds = %if.then11
  call void @_ZN4node6AssertERKNS_13AssertionInfoE(ptr noundef nonnull align 8 dereferenceable(24) @_ZZN4node8WatchdogC1EPN2v87IsolateEmPbE4args_0)
  call void @abort() #14
  unreachable

do.end13:                                         ; No predecessors!
  br label %if.end14

if.end14:                                         ; preds = %do.end13, %do.body7
  br label %do.end15

do.end15:                                         ; preds = %if.end14
  %loop_16 = getelementptr inbounds %"class.node::Watchdog", ptr %this1, i32 0, i32 2
  %timer_17 = getelementptr inbounds %"class.node::Watchdog", ptr %this1, i32 0, i32 4
  %call18 = call i32 @uv_timer_init(ptr noundef %loop_16, ptr noundef %timer_17)
  store i32 %call18, ptr %rc, align 4
  br label %do.body19

do.body19:                                        ; preds = %do.end15
  %4 = load i32, ptr %rc, align 4
  %cmp20 = icmp eq i32 0, %4
  %lnot21 = xor i1 %cmp20, true
  %lnot22 = xor i1 %lnot21, true
  %lnot23 = xor i1 %lnot22, true
  br i1 %lnot23, label %if.then24, label %if.end27

if.then24:                                        ; preds = %do.body19
  br label %do.body25

do.body25:                                        ; preds = %if.then24
  call void @_ZN4node6AssertERKNS_13AssertionInfoE(ptr noundef nonnull align 8 dereferenceable(24) @_ZZN4node8WatchdogC1EPN2v87IsolateEmPbE4args_1)
  call void @abort() #14
  unreachable

do.end26:                                         ; No predecessors!
  br label %if.end27

if.end27:                                         ; preds = %do.end26, %do.body19
  br label %do.end28

do.end28:                                         ; preds = %if.end27
  %timer_29 = getelementptr inbounds %"class.node::Watchdog", ptr %this1, i32 0, i32 4
  %5 = load i64, ptr %ms.addr, align 8
  %call30 = call i32 @uv_timer_start(ptr noundef %timer_29, ptr noundef @_ZN4node8Watchdog5TimerEP10uv_timer_s, i64 noundef %5, i64 noundef 0)
  store i32 %call30, ptr %rc, align 4
  br label %do.body31

do.body31:                                        ; preds = %do.end28
  %6 = load i32, ptr %rc, align 4
  %cmp32 = icmp eq i32 0, %6
  %lnot33 = xor i1 %cmp32, true
  %lnot34 = xor i1 %lnot33, true
  %lnot35 = xor i1 %lnot34, true
  br i1 %lnot35, label %if.then36, label %if.end39

if.then36:                                        ; preds = %do.body31
  br label %do.body37

do.body37:                                        ; preds = %if.then36
  call void @_ZN4node6AssertERKNS_13AssertionInfoE(ptr noundef nonnull align 8 dereferenceable(24) @_ZZN4node8WatchdogC1EPN2v87IsolateEmPbE4args_2)
  call void @abort() #14
  unreachable

do.end38:                                         ; No predecessors!
  br label %if.end39

if.end39:                                         ; preds = %do.end38, %do.body31
  br label %do.end40

do.end40:                                         ; preds = %if.end39
  %thread_ = getelementptr inbounds %"class.node::Watchdog", ptr %this1, i32 0, i32 1
  %call41 = call i32 @uv_thread_create(ptr noundef %thread_, ptr noundef @_ZN4node8Watchdog3RunEPv, ptr noundef %this1)
  store i32 %call41, ptr %rc, align 4
  br label %do.body42

do.body42:                                        ; preds = %do.end40
  %7 = load i32, ptr %rc, align 4
  %cmp43 = icmp eq i32 0, %7
  %lnot44 = xor i1 %cmp43, true
  %lnot45 = xor i1 %lnot44, true
  %lnot46 = xor i1 %lnot45, true
  br i1 %lnot46, label %if.then47, label %if.end50

if.then47:                                        ; preds = %do.body42
  br label %do.body48

do.body48:                                        ; preds = %if.then47
  call void @_ZN4node6AssertERKNS_13AssertionInfoE(ptr noundef nonnull align 8 dereferenceable(24) @_ZZN4node8WatchdogC1EPN2v87IsolateEmPbE4args_3)
  call void @abort() #14
  unreachable

do.end49:                                         ; No predecessors!
  br label %if.end50

if.end50:                                         ; preds = %do.end49, %do.body42
  br label %do.end51

do.end51:                                         ; preds = %if.end50
  ret void
}