; Function Attrs: mustprogress nounwind uwtable
define dso_local void @_ZN4node8WatchdogC2EPN2v87IsolateEmPb(ptr noundef nonnull align 8 dereferenceable(1152) %this, ptr noundef %isolate, i64 noundef %ms, ptr noundef %timed_out) unnamed_addr #3 align 2 {
entry:
  store ptr %isolate, ptr %this, align 8
  %timed_out_ = getelementptr inbounds i8, ptr %this, i64 1144
  store ptr %timed_out, ptr %timed_out_, align 8
  %loop_2 = getelementptr inbounds i8, ptr %this, i64 16
  %call = tail call i32 @uv_loop_init(ptr noundef nonnull %loop_2) #15
  %cmp.not = icmp eq i32 %call, 0
  br i1 %cmp.not, label %if.end, label %do.body

do.body:                                          ; preds = %entry
  tail call void @_ZN4node6AssertERKNS_13AssertionInfoE(ptr noundef nonnull align 8 dereferenceable(24) @_ZZN4node8WatchdogC1EPN2v87IsolateEmPbE4args) #15
  tail call void @abort() #16
  unreachable

if.end:                                           ; preds = %entry
  %async_4 = getelementptr inbounds i8, ptr %this, i64 864
  %call6 = tail call i32 @uv_async_init(ptr noundef nonnull %loop_2, ptr noundef nonnull %async_4, ptr noundef nonnull @"_ZZN4node8WatchdogC1EPN2v87IsolateEmPbEN3$_08__invokeEP10uv_async_s") #15
  %cmp8.not = icmp eq i32 %call6, 0
  br i1 %cmp8.not, label %do.end15, label %do.body12

do.body12:                                        ; preds = %if.end
  tail call void @_ZN4node6AssertERKNS_13AssertionInfoE(ptr noundef nonnull align 8 dereferenceable(24) @_ZZN4node8WatchdogC1EPN2v87IsolateEmPbE4args_0) #15
  tail call void @abort() #16
  unreachable

do.end15:                                         ; preds = %if.end
  %timer_17 = getelementptr inbounds i8, ptr %this, i64 992
  %call18 = tail call i32 @uv_timer_init(ptr noundef nonnull %loop_2, ptr noundef nonnull %timer_17) #15
  %cmp20.not = icmp eq i32 %call18, 0
  br i1 %cmp20.not, label %do.end28, label %do.body25

do.body25:                                        ; preds = %do.end15
  tail call void @_ZN4node6AssertERKNS_13AssertionInfoE(ptr noundef nonnull align 8 dereferenceable(24) @_ZZN4node8WatchdogC1EPN2v87IsolateEmPbE4args_1) #15
  tail call void @abort() #16
  unreachable

do.end28:                                         ; preds = %do.end15
  %call30 = tail call i32 @uv_timer_start(ptr noundef nonnull %timer_17, ptr noundef nonnull @_ZN4node8Watchdog5TimerEP10uv_timer_s, i64 noundef %ms, i64 noundef 0) #15
  %cmp32.not = icmp eq i32 %call30, 0
  br i1 %cmp32.not, label %do.end40, label %do.body37

do.body37:                                        ; preds = %do.end28
  tail call void @_ZN4node6AssertERKNS_13AssertionInfoE(ptr noundef nonnull align 8 dereferenceable(24) @_ZZN4node8WatchdogC1EPN2v87IsolateEmPbE4args_2) #15
  tail call void @abort() #16
  unreachable

do.end40:                                         ; preds = %do.end28
  %thread_ = getelementptr inbounds i8, ptr %this, i64 8
  %call41 = tail call i32 @uv_thread_create(ptr noundef nonnull %thread_, ptr noundef nonnull @_ZN4node8Watchdog3RunEPv, ptr noundef nonnull %this) #15
  %cmp43.not = icmp eq i32 %call41, 0
  br i1 %cmp43.not, label %do.end51, label %do.body48

do.body48:                                        ; preds = %do.end40
  tail call void @_ZN4node6AssertERKNS_13AssertionInfoE(ptr noundef nonnull align 8 dereferenceable(24) @_ZZN4node8WatchdogC1EPN2v87IsolateEmPbE4args_3) #15
  tail call void @abort() #16
  unreachable

do.end51:                                         ; preds = %do.end40
  ret void
}